target datalayout = "e-m:e-p270:32:32-p271:32:32-p272:64:64-i64:64-i128:128-f80:128-n8:16:32:64-S128"
target triple = "x86_64-pc-linux-gnu"

%"struct.icu_77::LocaleDistanceData" = type { ptr, ptr, ptr, ptr, i32, ptr }

; Function Attrs: mustprogress nounwind uwtable
define void @_ZN6icu_7718LocaleDistanceDataC2EOS0_(ptr noundef nonnull align 8 dereferenceable(48) %0, ptr noundef nonnull align 8 dereferenceable(48) %1) unnamed_addr #0 align 2 {
  %3 = alloca ptr, align 8
  %4 = alloca ptr, align 8
  store ptr %0, ptr %3, align 8, !tbaa !23
  store ptr %1, ptr %4, align 8, !tbaa !23
  %5 = load ptr, ptr %3, align 8
  %6 = getelementptr inbounds nuw %"struct.icu_77::LocaleDistanceData", ptr %5, i32 0, i32 0
  %7 = load ptr, ptr %4, align 8, !tbaa !23
  %8 = getelementptr inbounds nuw %"struct.icu_77::LocaleDistanceData", ptr %7, i32 0, i32 0
  %9 = load ptr, ptr %8, align 8, !tbaa !25
  store ptr %9, ptr %6, align 8, !tbaa !25
  %10 = getelementptr inbounds nuw %"struct.icu_77::LocaleDistanceData", ptr %5, i32 0, i32 1
  %11 = load ptr, ptr %4, align 8, !tbaa !23
  %12 = getelementptr inbounds nuw %"struct.icu_77::LocaleDistanceData", ptr %11, i32 0, i32 1
  %13 = load ptr, ptr %12, align 8, !tbaa !30
  store ptr %13, ptr %10, align 8, !tbaa !30
  %14 = getelementptr inbounds nuw %"struct.icu_77::LocaleDistanceData", ptr %5, i32 0, i32 2
  %15 = load ptr, ptr %4, align 8, !tbaa !23
  %16 = getelementptr inbounds nuw %"struct.icu_77::LocaleDistanceData", ptr %15, i32 0, i32 2
  %17 = load ptr, ptr %16, align 8, !tbaa !31
  store ptr %17, ptr %14, align 8, !tbaa !31
  %18 = getelementptr inbounds nuw %"struct.icu_77::LocaleDistanceData", ptr %5, i32 0, i32 3
  %19 = load ptr, ptr %4, align 8, !tbaa !23
  %20 = getelementptr inbounds nuw %"struct.icu_77::LocaleDistanceData", ptr %19, i32 0, i32 3
  %21 = load ptr, ptr %20, align 8, !tbaa !32
  store ptr %21, ptr %18, align 8, !tbaa !32
  %22 = getelementptr inbounds nuw %"struct.icu_77::LocaleDistanceData", ptr %5, i32 0, i32 4
  %23 = load ptr, ptr %4, align 8, !tbaa !23
  %24 = getelementptr inbounds nuw %"struct.icu_77::LocaleDistanceData", ptr %23, i32 0, i32 4
  %25 = load i32, ptr %24, align 8, !tbaa !33
  store i32 %25, ptr %22, align 8, !tbaa !33
  %26 = getelementptr inbounds nuw %"struct.icu_77::LocaleDistanceData", ptr %5, i32 0, i32 5
  %27 = load ptr, ptr %4, align 8, !tbaa !23
  %28 = getelementptr inbounds nuw %"struct.icu_77::LocaleDistanceData", ptr %27, i32 0, i32 5
  %29 = load ptr, ptr %28, align 8, !tbaa !34
  store ptr %29, ptr %26, align 8, !tbaa !34
  %30 = load ptr, ptr %4, align 8, !tbaa !23
  %31 = getelementptr inbounds nuw %"struct.icu_77::LocaleDistanceData", ptr %30, i32 0, i32 2
  store ptr null, ptr %31, align 8, !tbaa !31
  %32 = load ptr, ptr %4, align 8, !tbaa !23
  %33 = getelementptr inbounds nuw %"struct.icu_77::LocaleDistanceData", ptr %32, i32 0, i32 3
  store ptr null, ptr %33, align 8, !tbaa !32
  ret void
}